; Function Attrs: nounwind uwtable
define dso_local void @ExecuteSqlStatement(ptr noundef readonly captures(none) %0, ptr noundef %1) local_unnamed_addr #0 {
  %3 = getelementptr inbounds nuw i8, ptr %0, i64 440
  %4 = load ptr, ptr %3, align 8
  %5 = tail call ptr @PQexec(ptr noundef %4, ptr noundef %1) #11
  %6 = tail call i32 @PQresultStatus(ptr noundef %5) #11
  %.not = icmp eq i32 %6, 1
  br i1 %.not, label %8, label %7

7:                                                ; preds = %2
  %.val = load ptr, ptr %3, align 8
  tail call fastcc void @die_on_query_failure(ptr %.val, ptr noundef %1)
  unreachable

8:                                                ; preds = %2
  tail call void @PQclear(ptr noundef %5) #11
  ret void
}